target datalayout = "e-m:e-p270:32:32-p271:32:32-p272:64:64-i64:64-i128:128-f80:128-n8:16:32:64-S128"
target triple = "x86_64-pc-linux-gnu"

%struct._packet_info = type { ptr, ptr, i32, i32, %struct.nstime_t, %struct.nstime_t, %struct.nstime_t, i8, ptr, ptr, ptr, ptr, %struct._address, %struct._address, %struct._address, %struct._address, %struct._address, %struct._address, i32, ptr, i8, [3 x i8], %struct.anon, i32, i32, i32, i32, ptr, i8, ptr, ptr, i16, i16, i32, i32, i16, i32, i32, ptr, ptr, ptr, i8, i8, i16, i16, i16, i32, i16, i16, ptr, ptr, ptr, ptr, ptr, i32, i32 }
%struct.nstime_t = type { i64, i32 }
%struct._address = type { i32, i32, ptr, ptr }
%struct.anon = type { i8, [3 x i8] }
%struct.gadu_gadu_conv_data = type { i32 }

@hf_gadu_gadu_login_uin = internal global i32 0, align 4
@hf_gadu_gadu_login_status = internal global i32 0, align 4
@hf_gadu_gadu_login80_lang = internal global i32 0, align 4
@proto_gadu_gadu = internal global i32 0, align 4
@.str.282 = private unnamed_addr constant [20 x i8] c"Login request (8.0)\00", align 1

; Function Attrs: null_pointer_is_valid sspstrong uwtable
define internal ptr @gadu_gadu_create_conversation(ptr noundef %0, i32 noundef %1) #0 {
  %3 = alloca ptr, align 8
  %4 = alloca i32, align 4
  %5 = alloca ptr, align 8
  %6 = alloca ptr, align 8
  store ptr %0, ptr %3, align 8
  store i32 %1, ptr %4, align 4
  call void @llvm.lifetime.start.p0(i64 8, ptr %5) #6
  call void @llvm.lifetime.start.p0(i64 8, ptr %6) #6
  %7 = load ptr, ptr %3, align 8
  %8 = call ptr @find_or_create_conversation(ptr noundef %7)
  store ptr %8, ptr %5, align 8
  %9 = load ptr, ptr %5, align 8
  %10 = load i32, ptr @proto_gadu_gadu, align 4
  %11 = call ptr @conversation_get_proto_data(ptr noundef %9, i32 noundef %10)
  store ptr %11, ptr %6, align 8
  %12 = load ptr, ptr %6, align 8
  %13 = icmp ne ptr %12, null
  br i1 %13, label %23, label %14

14:                                               ; preds = %2
  %15 = call ptr @wmem_file_scope()
  %16 = call noalias ptr @wmem_alloc(ptr noundef %15, i64 noundef 4) #7
  store ptr %16, ptr %6, align 8
  %17 = load i32, ptr %4, align 4
  %18 = load ptr, ptr %6, align 8
  %19 = getelementptr inbounds nuw %struct.gadu_gadu_conv_data, ptr %18, i32 0, i32 0
  store i32 %17, ptr %19, align 4
  %20 = load ptr, ptr %5, align 8
  %21 = load i32, ptr @proto_gadu_gadu, align 4
  %22 = load ptr, ptr %6, align 8
  call void @conversation_add_proto_data(ptr noundef %20, i32 noundef %21, ptr noundef %22)
  br label %23

23:                                               ; preds = %14, %2
  %24 = load ptr, ptr %6, align 8
  call void @llvm.lifetime.end.p0(i64 8, ptr %6) #6
  call void @llvm.lifetime.end.p0(i64 8, ptr %5) #6
  ret ptr %24
}

; Function Attrs: null_pointer_is_valid sspstrong uwtable
define internal i32 @dissect_gadu_gadu_login80(ptr noundef %0, ptr noundef %1, ptr noundef %2, i32 noundef %3) #0 {
  %5 = alloca ptr, align 8
  %6 = alloca ptr, align 8
  %7 = alloca ptr, align 8
  %8 = alloca i32, align 4
  %9 = alloca i32, align 4
  store ptr %0, ptr %5, align 8
  store ptr %1, ptr %6, align 8
  store ptr %2, ptr %7, align 8
  store i32 %3, ptr %8, align 4
  call void @llvm.lifetime.start.p0(i64 4, ptr %9) #6
  %10 = load ptr, ptr %6, align 8
  %11 = getelementptr inbounds nuw %struct._packet_info, ptr %10, i32 0, i32 1
  %12 = load ptr, ptr %11, align 8
  call void @col_set_str(ptr noundef %12, i32 noundef 25, ptr noundef @.str.282)
  %13 = load ptr, ptr %5, align 8
  %14 = load i32, ptr %8, align 4
  %15 = call i32 @tvb_get_letohl(ptr noundef %13, i32 noundef %14)
  store i32 %15, ptr %9, align 4
  %16 = load ptr, ptr %6, align 8
  %17 = load i32, ptr %9, align 4
  %18 = call ptr @gadu_gadu_create_conversation(ptr noundef %16, i32 noundef %17)
  %19 = load ptr, ptr %7, align 8
  %20 = load i32, ptr @hf_gadu_gadu_login_uin, align 4
  %21 = load ptr, ptr %5, align 8
  %22 = load i32, ptr %8, align 4
  %23 = call ptr @proto_tree_add_item(ptr noundef %19, i32 noundef %20, ptr noundef %21, i32 noundef %22, i32 noundef 4, i32 noundef -2147483648)
  %24 = load i32, ptr %8, align 4
  %25 = add i32 %24, 4
  store i32 %25, ptr %8, align 4
  %26 = load ptr, ptr %7, align 8
  %27 = load i32, ptr @hf_gadu_gadu_login80_lang, align 4
  %28 = load ptr, ptr %5, align 8
  %29 = load i32, ptr %8, align 4
  %30 = call ptr @proto_tree_add_item(ptr noundef %26, i32 noundef %27, ptr noundef %28, i32 noundef %29, i32 noundef 2, i32 noundef 0)
  %31 = load i32, ptr %8, align 4
  %32 = add i32 %31, 2
  store i32 %32, ptr %8, align 4
  %33 = load ptr, ptr %5, align 8
  %34 = load ptr, ptr %7, align 8
  %35 = load i32, ptr %8, align 4
  %36 = call i32 @dissect_gadu_gadu_login_hash(ptr noundef %33, ptr noundef %34, i32 noundef %35)
  store i32 %36, ptr %8, align 4
  %37 = load ptr, ptr %7, align 8
  %38 = load i32, ptr @hf_gadu_gadu_login_status, align 4
  %39 = load ptr, ptr %5, align 8
  %40 = load i32, ptr %8, align 4
  %41 = call ptr @proto_tree_add_item(ptr noundef %37, i32 noundef %38, ptr noundef %39, i32 noundef %40, i32 noundef 4, i32 noundef -2147483648)
  %42 = load i32, ptr %8, align 4
  %43 = add i32 %42, 4
  store i32 %43, ptr %8, align 4
  %44 = load i32, ptr %8, align 4
  call void @llvm.lifetime.end.p0(i64 4, ptr %9) #6
  ret i32 %44
}