; Function Attrs: null_pointer_is_valid sspstrong uwtable
define internal fastcc range(i32 81, 84) i32 @dissect_gadu_gadu_login80(ptr noundef %0, ptr noundef %1, ptr noundef %2) unnamed_addr #0 {
  %4 = getelementptr inbounds nuw i8, ptr %1, i64 8
  %5 = load ptr, ptr %4, align 8
  tail call void @col_set_str(ptr noundef %5, i32 noundef 25, ptr noundef nonnull @.str.282)
  %6 = tail call i32 @tvb_get_letohl(ptr noundef %0, i32 noundef 8)
  %7 = tail call ptr @find_or_create_conversation(ptr noundef %1)
  %8 = load i32, ptr @proto_gadu_gadu, align 4
  %9 = tail call ptr @conversation_get_proto_data(ptr noundef %7, i32 noundef %8)
  %.not.i = icmp eq ptr %9, null
  br i1 %.not.i, label %10, label %gadu_gadu_create_conversation.exit

10:                                               ; preds = %3
  %11 = tail call ptr @wmem_file_scope()
  %12 = tail call noalias dereferenceable_or_null(4) ptr @wmem_alloc(ptr noundef %11, i64 noundef 4) #5
  store i32 %6, ptr %12, align 4
  %13 = load i32, ptr @proto_gadu_gadu, align 4
  tail call void @conversation_add_proto_data(ptr noundef %7, i32 noundef %13, ptr noundef %12)
  br label %gadu_gadu_create_conversation.exit

gadu_gadu_create_conversation.exit:               ; preds = %3, %10
  %14 = load i32, ptr @hf_gadu_gadu_login_uin, align 4
  %15 = tail call ptr @proto_tree_add_item(ptr noundef %2, i32 noundef %14, ptr noundef %0, i32 noundef 8, i32 noundef 4, i32 noundef -2147483648)
  %16 = load i32, ptr @hf_gadu_gadu_login80_lang, align 4
  %17 = tail call ptr @proto_tree_add_item(ptr noundef %2, i32 noundef %16, ptr noundef %0, i32 noundef 12, i32 noundef 2, i32 noundef 0)
  %18 = tail call fastcc i32 @dissect_gadu_gadu_login_hash(ptr noundef %0, ptr noundef %2, i32 noundef 14)
  %19 = load i32, ptr @hf_gadu_gadu_login_status, align 4
  %20 = tail call ptr @proto_tree_add_item(ptr noundef %2, i32 noundef %19, ptr noundef %0, i32 noundef %18, i32 noundef 4, i32 noundef -2147483648)
  %21 = add nuw nsw i32 %18, 4
  ret i32 %21
}